target datalayout = "e-m:e-p270:32:32-p271:32:32-p272:64:64-i64:64-i128:128-f80:128-n8:16:32:64-S128"
target triple = "x86_64-pc-linux-gnu"

%struct.PaUtilHostApiRepresentation = type { %struct.PaUtilPrivatePaFrontHostApiInfo, %struct.PaHostApiInfo, ptr, ptr, ptr, ptr }
%struct.PaUtilPrivatePaFrontHostApiInfo = type { i64 }
%struct.PaHostApiInfo = type { i32, i32, ptr, i32, i32, i32 }
%struct.PaUtilStreamRepresentation = type { i64, ptr, ptr, ptr, ptr, ptr, %struct.PaStreamInfo }
%struct.PaStreamInfo = type { i32, double, double, double }
%struct.PaUtilStreamInterface = type { ptr, ptr, ptr, ptr, ptr, ptr, ptr, ptr, ptr, ptr, ptr, ptr }

@firstOpenStream_ = global ptr null, align 8
@initializationCount_ = internal global i32 0, align 4
@hostApisCount_ = internal global i32 0, align 4
@hostApis_ = internal global ptr null, align 8
@defaultHostApiIndex_ = internal global i32 0, align 4
@deviceCount_ = internal global i32 0, align 4

; Function Attrs: nounwind uwtable
define internal void @RemoveOpenStream(ptr noundef %0) #0 {
  %2 = alloca ptr, align 8
  %3 = alloca ptr, align 8
  %4 = alloca ptr, align 8
  store ptr %0, ptr %2, align 8
  store ptr null, ptr %3, align 8
  %5 = load ptr, ptr @firstOpenStream_, align 8
  store ptr %5, ptr %4, align 8
  br label %6

6:                                                ; preds = %32, %1
  %7 = load ptr, ptr %4, align 8
  %8 = icmp ne ptr %7, null
  br i1 %8, label %9, label %33

9:                                                ; preds = %6
  %10 = load ptr, ptr %4, align 8
  %11 = load ptr, ptr %2, align 8
  %12 = icmp eq ptr %10, %11
  br i1 %12, label %13, label %27

13:                                               ; preds = %9
  %14 = load ptr, ptr %3, align 8
  %15 = icmp eq ptr %14, null
  br i1 %15, label %16, label %20

16:                                               ; preds = %13
  %17 = load ptr, ptr %4, align 8
  %18 = getelementptr inbounds nuw %struct.PaUtilStreamRepresentation, ptr %17, i32 0, i32 1
  %19 = load ptr, ptr %18, align 8
  store ptr %19, ptr @firstOpenStream_, align 8
  br label %26

20:                                               ; preds = %13
  %21 = load ptr, ptr %4, align 8
  %22 = getelementptr inbounds nuw %struct.PaUtilStreamRepresentation, ptr %21, i32 0, i32 1
  %23 = load ptr, ptr %22, align 8
  %24 = load ptr, ptr %3, align 8
  %25 = getelementptr inbounds nuw %struct.PaUtilStreamRepresentation, ptr %24, i32 0, i32 1
  store ptr %23, ptr %25, align 8
  br label %26

26:                                               ; preds = %20, %16
  br label %33

27:                                               ; preds = %9
  %28 = load ptr, ptr %4, align 8
  store ptr %28, ptr %3, align 8
  %29 = load ptr, ptr %4, align 8
  %30 = getelementptr inbounds nuw %struct.PaUtilStreamRepresentation, ptr %29, i32 0, i32 1
  %31 = load ptr, ptr %30, align 8
  store ptr %31, ptr %4, align 8
  br label %32

32:                                               ; preds = %27
  br label %6, !llvm.loop !11

33:                                               ; preds = %26, %6
  ret void
}

; Function Attrs: nounwind uwtable
define i32 @PaUtil_ValidateStreamPointer(ptr noundef %0) #0 {
  %2 = alloca i32, align 4
  %3 = alloca ptr, align 8
  store ptr %0, ptr %3, align 8
  %4 = load i32, ptr @initializationCount_, align 4
  %5 = icmp ne i32 %4, 0
  br i1 %5, label %7, label %6

6:                                                ; preds = %1
  store i32 -10000, ptr %2, align 4
  br label %18

7:                                                ; preds = %1
  %8 = load ptr, ptr %3, align 8
  %9 = icmp eq ptr %8, null
  br i1 %9, label %10, label %11

10:                                               ; preds = %7
  store i32 -9988, ptr %2, align 4
  br label %18

11:                                               ; preds = %7
  %12 = load ptr, ptr %3, align 8
  %13 = getelementptr inbounds nuw %struct.PaUtilStreamRepresentation, ptr %12, i32 0, i32 0
  %14 = load i64, ptr %13, align 8
  %15 = icmp ne i64 %14, 405222981
  br i1 %15, label %16, label %17

16:                                               ; preds = %11
  store i32 -9988, ptr %2, align 4
  br label %18

17:                                               ; preds = %11
  store i32 0, ptr %2, align 4
  br label %18

18:                                               ; preds = %17, %16, %10, %6
  %19 = load i32, ptr %2, align 4
  ret i32 %19
}

; Function Attrs: nounwind uwtable
define i32 @Pa_CloseStream(ptr noundef %0) #0 {
  %2 = alloca ptr, align 8
  %3 = alloca ptr, align 8
  %4 = alloca i32, align 4
  store ptr %0, ptr %2, align 8
  %5 = load ptr, ptr %2, align 8
  %6 = call i32 @PaUtil_ValidateStreamPointer(ptr noundef %5)
  store i32 %6, ptr %4, align 4
  %7 = load ptr, ptr %2, align 8
  call void @RemoveOpenStream(ptr noundef %7)
  %8 = load i32, ptr %4, align 4
  %9 = icmp eq i32 %8, 0
  br i1 %9, label %10, label %42

10:                                               ; preds = %1
  %11 = load ptr, ptr %2, align 8
  %12 = getelementptr inbounds nuw %struct.PaUtilStreamRepresentation, ptr %11, i32 0, i32 2
  %13 = load ptr, ptr %12, align 8
  store ptr %13, ptr %3, align 8
  %14 = load ptr, ptr %3, align 8
  %15 = getelementptr inbounds nuw %struct.PaUtilStreamInterface, ptr %14, i32 0, i32 4
  %16 = load ptr, ptr %15, align 8
  %17 = load ptr, ptr %2, align 8
  %18 = call i32 %16(ptr noundef %17)
  store i32 %18, ptr %4, align 4
  %19 = load i32, ptr %4, align 4
  %20 = icmp eq i32 %19, 1
  br i1 %20, label %21, label %22

21:                                               ; preds = %10
  store i32 0, ptr %4, align 4
  br label %32

22:                                               ; preds = %10
  %23 = load i32, ptr %4, align 4
  %24 = icmp eq i32 %23, 0
  br i1 %24, label %25, label %31

25:                                               ; preds = %22
  %26 = load ptr, ptr %3, align 8
  %27 = getelementptr inbounds nuw %struct.PaUtilStreamInterface, ptr %26, i32 0, i32 3
  %28 = load ptr, ptr %27, align 8
  %29 = load ptr, ptr %2, align 8
  %30 = call i32 %28(ptr noundef %29)
  store i32 %30, ptr %4, align 4
  br label %31

31:                                               ; preds = %25, %22
  br label %32

32:                                               ; preds = %31, %21
  %33 = load i32, ptr %4, align 4
  %34 = icmp eq i32 %33, 0
  br i1 %34, label %35, label %41

35:                                               ; preds = %32
  %36 = load ptr, ptr %3, align 8
  %37 = getelementptr inbounds nuw %struct.PaUtilStreamInterface, ptr %36, i32 0, i32 0
  %38 = load ptr, ptr %37, align 8
  %39 = load ptr, ptr %2, align 8
  %40 = call i32 %38(ptr noundef %39)
  store i32 %40, ptr %4, align 4
  br label %41

41:                                               ; preds = %35, %32
  br label %42

42:                                               ; preds = %41, %1
  %43 = load i32, ptr %4, align 4
  ret i32 %43
}

; Function Attrs: nounwind uwtable
define internal void @TerminateHostApis() #0 {
  br label %1

1:                                                ; preds = %4, %0
  %2 = load i32, ptr @hostApisCount_, align 4
  %3 = icmp sgt i32 %2, 0
  br i1 %3, label %4, label %19

4:                                                ; preds = %1
  %5 = load i32, ptr @hostApisCount_, align 4
  %6 = add nsw i32 %5, -1
  store i32 %6, ptr @hostApisCount_, align 4
  %7 = load ptr, ptr @hostApis_, align 8
  %8 = load i32, ptr @hostApisCount_, align 4
  %9 = sext i32 %8 to i64
  %10 = getelementptr inbounds ptr, ptr %7, i64 %9
  %11 = load ptr, ptr %10, align 8
  %12 = getelementptr inbounds nuw %struct.PaUtilHostApiRepresentation, ptr %11, i32 0, i32 3
  %13 = load ptr, ptr %12, align 8
  %14 = load ptr, ptr @hostApis_, align 8
  %15 = load i32, ptr @hostApisCount_, align 4
  %16 = sext i32 %15 to i64
  %17 = getelementptr inbounds ptr, ptr %14, i64 %16
  %18 = load ptr, ptr %17, align 8
  call void %13(ptr noundef %18)
  br label %1, !llvm.loop !7

19:                                               ; preds = %1
  store i32 0, ptr @hostApisCount_, align 4
  store i32 0, ptr @defaultHostApiIndex_, align 4
  store i32 0, ptr @deviceCount_, align 4
  %20 = load ptr, ptr @hostApis_, align 8
  %21 = icmp ne ptr %20, null
  br i1 %21, label %22, label %24

22:                                               ; preds = %19
  %23 = load ptr, ptr @hostApis_, align 8
  call void @PaUtil_FreeMemory(ptr noundef %23)
  br label %24

24:                                               ; preds = %22, %19
  store ptr null, ptr @hostApis_, align 8
  ret void
}

; Function Attrs: nounwind uwtable
define internal void @CloseOpenStreams() #0 {
  br label %1

1:                                                ; preds = %4, %0
  %2 = load ptr, ptr @firstOpenStream_, align 8
  %3 = icmp ne ptr %2, null
  br i1 %3, label %4, label %7

4:                                                ; preds = %1
  %5 = load ptr, ptr @firstOpenStream_, align 8
  %6 = call i32 @Pa_CloseStream(ptr noundef %5)
  br label %1, !llvm.loop !6

7:                                                ; preds = %1
  ret void
}

; Function Attrs: nounwind uwtable
define i32 @Pa_Terminate() #0 {
  %1 = alloca i32, align 4
  %2 = load i32, ptr @initializationCount_, align 4
  %3 = icmp ne i32 %2, 0
  br i1 %3, label %4, label %11

4:                                                ; preds = %0
  %5 = load i32, ptr @initializationCount_, align 4
  %6 = icmp eq i32 %5, 1
  br i1 %6, label %7, label %8

7:                                                ; preds = %4
  call void @CloseOpenStreams()
  call void @TerminateHostApis()
  br label %8

8:                                                ; preds = %7, %4
  %9 = load i32, ptr @initializationCount_, align 4
  %10 = add nsw i32 %9, -1
  store i32 %10, ptr @initializationCount_, align 4
  store i32 0, ptr %1, align 4
  br label %12

11:                                               ; preds = %0
  store i32 -10000, ptr %1, align 4
  br label %12

12:                                               ; preds = %11, %8
  %13 = load i32, ptr %1, align 4
  ret i32 %13
}