; Function Attrs: nounwind uwtable
define range(i32 -10000, 1) i32 @Pa_Terminate() local_unnamed_addr #3 {
  %1 = load i32, ptr @initializationCount_, align 4
  switch i32 %1, label %40 [
    i32 0, label %43
    i32 1, label %2
  ]

2:                                                ; preds = %0
  %3 = load ptr, ptr @firstOpenStream_, align 8
  %.not3.i = icmp eq ptr %3, null
  br i1 %.not3.i, label %CloseOpenStreams.exit, label %.lr.ph.split.i

.lr.ph.splitthread-pre-split.i:                   ; preds = %Pa_CloseStream.exit.i
  %.pr.i = load i32, ptr @initializationCount_, align 4
  br label %.lr.ph.split.i

.lr.ph.split.i:                                   ; preds = %2, %.lr.ph.splitthread-pre-split.i
  %4 = phi i32 [ %.pr.i, %.lr.ph.splitthread-pre-split.i ], [ 1, %2 ]
  %5 = phi ptr [ %25, %.lr.ph.splitthread-pre-split.i ], [ %3, %2 ]
  %.not.i.i.i = icmp eq i32 %4, 0
  br i1 %.not.i.i.i, label %RemoveOpenStream.exit.i.thread.i, label %6

6:                                                ; preds = %.lr.ph.split.i
  %7 = load i64, ptr %5, align 8
  %.not3.i.i.i = icmp eq i64 %7, 405222981
  br i1 %.not3.i.i.i, label %10, label %RemoveOpenStream.exit.i.thread.i

RemoveOpenStream.exit.i.thread.i:                 ; preds = %6, %.lr.ph.split.i
  %8 = getelementptr inbounds nuw i8, ptr %5, i64 8
  %9 = load ptr, ptr %8, align 8
  store ptr %9, ptr @firstOpenStream_, align 8
  br label %Pa_CloseStream.exit.i

10:                                               ; preds = %6
  %11 = getelementptr inbounds nuw i8, ptr %5, i64 8
  %12 = load ptr, ptr %11, align 8
  store ptr %12, ptr @firstOpenStream_, align 8
  %13 = getelementptr inbounds nuw i8, ptr %5, i64 16
  %14 = load ptr, ptr %13, align 8
  %15 = getelementptr inbounds nuw i8, ptr %14, i64 32
  %16 = load ptr, ptr %15, align 8
  %17 = tail call i32 %16(ptr noundef nonnull %5) #12
  switch i32 %17, label %Pa_CloseStream.exitthread-pre-split.i [
    i32 1, label %.thread.i.i
    i32 0, label %18
  ]

18:                                               ; preds = %10
  %19 = getelementptr inbounds nuw i8, ptr %14, i64 24
  %20 = load ptr, ptr %19, align 8
  %21 = tail call i32 %20(ptr noundef nonnull %5) #12
  %22 = icmp eq i32 %21, 0
  br i1 %22, label %.thread.i.i, label %Pa_CloseStream.exitthread-pre-split.i

.thread.i.i:                                      ; preds = %18, %10
  %23 = load ptr, ptr %14, align 8
  %24 = tail call i32 %23(ptr noundef nonnull %5) #12
  br label %Pa_CloseStream.exitthread-pre-split.i

Pa_CloseStream.exitthread-pre-split.i:            ; preds = %.thread.i.i, %18, %10
  %.pr4.i = load ptr, ptr @firstOpenStream_, align 8
  br label %Pa_CloseStream.exit.i

Pa_CloseStream.exit.i:                            ; preds = %Pa_CloseStream.exitthread-pre-split.i, %RemoveOpenStream.exit.i.thread.i
  %25 = phi ptr [ %.pr4.i, %Pa_CloseStream.exitthread-pre-split.i ], [ %9, %RemoveOpenStream.exit.i.thread.i ]
  %.not.i = icmp eq ptr %25, null
  br i1 %.not.i, label %CloseOpenStreams.exit, label %.lr.ph.splitthread-pre-split.i, !llvm.loop !8

CloseOpenStreams.exit:                            ; preds = %Pa_CloseStream.exit.i, %2
  %26 = load i32, ptr @hostApisCount_, align 4
  %27 = icmp sgt i32 %26, 0
  br i1 %27, label %.lr.ph.i3, label %._crit_edge.i

.lr.ph.i3:                                        ; preds = %CloseOpenStreams.exit, %.lr.ph.i3
  %28 = phi i32 [ %36, %.lr.ph.i3 ], [ %26, %CloseOpenStreams.exit ]
  %29 = add nsw i32 %28, -1
  store i32 %29, ptr @hostApisCount_, align 4
  %30 = load ptr, ptr @hostApis_, align 8
  %31 = zext nneg i32 %29 to i64
  %32 = getelementptr inbounds ptr, ptr %30, i64 %31
  %33 = load ptr, ptr %32, align 8
  %34 = getelementptr inbounds nuw i8, ptr %33, i64 48
  %35 = load ptr, ptr %34, align 8
  tail call void %35(ptr noundef %33) #12
  %36 = load i32, ptr @hostApisCount_, align 4
  %37 = icmp sgt i32 %36, 0
  br i1 %37, label %.lr.ph.i3, label %._crit_edge.i, !llvm.loop !7

._crit_edge.i:                                    ; preds = %.lr.ph.i3, %CloseOpenStreams.exit
  store i32 0, ptr @hostApisCount_, align 4
  store i32 0, ptr @defaultHostApiIndex_, align 4
  store i32 0, ptr @deviceCount_, align 4
  %38 = load ptr, ptr @hostApis_, align 8
  %.not.i2 = icmp eq ptr %38, null
  br i1 %.not.i2, label %TerminateHostApis.exit, label %39

39:                                               ; preds = %._crit_edge.i
  tail call void @PaUtil_FreeMemory(ptr noundef nonnull %38) #12
  br label %TerminateHostApis.exit

TerminateHostApis.exit:                           ; preds = %._crit_edge.i, %39
  store ptr null, ptr @hostApis_, align 8
  %.pre = load i32, ptr @initializationCount_, align 4
  br label %40

40:                                               ; preds = %0, %TerminateHostApis.exit
  %41 = phi i32 [ %1, %0 ], [ %.pre, %TerminateHostApis.exit ]
  %42 = add nsw i32 %41, -1
  store i32 %42, ptr @initializationCount_, align 4
  br label %43

43:                                               ; preds = %0, %40
  %.0 = phi i32 [ 0, %40 ], [ -10000, %0 ]
  ret i32 %.0
}